; Function Attrs: mustprogress nounwind uwtable
define dso_local void @_ZNK5clang10extractapi29TypedefUnderlyingTypeResolver13getUSRForTypeB5cxx11ENS_8QualTypeE(ptr dead_on_unwind noalias writable sret(%"class.std::__cxx11::basic_string") align 8 %0, ptr noundef nonnull readonly align 8 captures(none) dereferenceable(8) %1, i64 %2) local_unnamed_addr #0 align 2 {
  %4 = alloca %"class.std::allocator", align 1
  %5 = alloca %"class.llvm::SmallString", align 8
  %6 = getelementptr inbounds nuw i8, ptr %5, i64 24
  call void @_ZN4llvm15SmallVectorBaseImEC2EPvm(ptr noundef nonnull align 8 dereferenceable(152) %5, ptr noundef nonnull %6, i64 noundef 128) #5
  %7 = call noundef ptr @_ZNK5clang10extractapi29TypedefUnderlyingTypeResolver21getUnderlyingTypeDeclENS_8QualTypeE(ptr nonnull align 8 poison, i64 %2)
  %.not = icmp eq ptr %7, null
  br i1 %.not, label %10, label %8

8:                                                ; preds = %3
  %9 = call noundef zeroext i1 @_ZN5clang5index18generateUSRForDeclEPKNS_4DeclERN4llvm15SmallVectorImplIcEE(ptr noundef nonnull %7, ptr noundef nonnull align 8 dereferenceable(24) %5) #5
  br label %13

10:                                               ; preds = %3
  %11 = load ptr, ptr %1, align 8
  %12 = call noundef zeroext i1 @_ZN5clang5index18generateUSRForTypeENS_8QualTypeERNS_10ASTContextERN4llvm15SmallVectorImplIcEE(i64 %2, ptr noundef nonnull align 8 dereferenceable(23096) %11, ptr noundef nonnull align 8 dereferenceable(24) %5) #5
  br label %13

13:                                               ; preds = %10, %8
  call void @llvm.lifetime.start.p0(i64 1, ptr nonnull %4)
  %14 = load ptr, ptr %5, align 8, !noalias !7
  %15 = call noundef i64 @_ZNK4llvm15SmallVectorBaseImE4sizeEv(ptr noundef nonnull align 8 dereferenceable(152) %5) #5, !noalias !7
  call void @_ZNSaIcEC1Ev(ptr noundef nonnull align 1 dereferenceable(1) %4) #5, !noalias !7
  call void @_ZNSt7__cxx1112basic_stringIcSt11char_traitsIcESaIcEEC1EPKcmRKS3_(ptr noundef nonnull align 8 dereferenceable(32) %0, ptr noundef %14, i64 noundef %15, ptr noundef nonnull align 1 dereferenceable(1) %4) #5
  call void @_ZNSaIcED1Ev(ptr noundef nonnull align 1 dereferenceable(1) %4) #5
  call void @llvm.lifetime.end.p0(i64 1, ptr nonnull %4)
  %16 = call noundef i64 @_ZNK4llvm15SmallVectorBaseImE4sizeEv(ptr noundef nonnull align 8 dereferenceable(152) %5) #5
  %17 = load ptr, ptr %5, align 8
  %18 = icmp eq ptr %17, %6
  br i1 %18, label %_ZN4llvm11SmallStringILj128EED2Ev.exit, label %19

19:                                               ; preds = %13
  call void @free(ptr noundef %17) #5
  br label %_ZN4llvm11SmallStringILj128EED2Ev.exit

_ZN4llvm11SmallStringILj128EED2Ev.exit:           ; preds = %13, %19
  ret void
}